target datalayout = "e-m:e-p270:32:32-p271:32:32-p272:64:64-i64:64-i128:128-f80:128-n8:16:32:64-S128"
target triple = "x86_64-pc-linux-gnu"

@g_assert_poison = external global ptr, align 8
@.str.36 = private unnamed_addr constant [6 x i8] c"Class\00", align 1
@.str.37 = private unnamed_addr constant [7 x i8] c"Symbol\00", align 1
@.str.38 = private unnamed_addr constant [12 x i8] c"TypeArrayU1\00", align 1
@.str.39 = private unnamed_addr constant [12 x i8] c"TypeArrayU2\00", align 1
@.str.40 = private unnamed_addr constant [12 x i8] c"TypeArrayU4\00", align 1
@.str.41 = private unnamed_addr constant [12 x i8] c"TypeArrayU8\00", align 1
@.str.42 = private unnamed_addr constant [15 x i8] c"TypeArrayOther\00", align 1
@.str.43 = private unnamed_addr constant [7 x i8] c"Method\00", align 1
@.str.44 = private unnamed_addr constant [12 x i8] c"ConstMethod\00", align 1
@.str.45 = private unnamed_addr constant [11 x i8] c"MethodData\00", align 1
@.str.46 = private unnamed_addr constant [13 x i8] c"ConstantPool\00", align 1
@.str.47 = private unnamed_addr constant [18 x i8] c"ConstantPoolCache\00", align 1
@.str.48 = private unnamed_addr constant [12 x i8] c"Annotations\00", align 1
@.str.49 = private unnamed_addr constant [15 x i8] c"MethodCounters\00", align 1
@.str.50 = private unnamed_addr constant [21 x i8] c"SharedClassPathEntry\00", align 1
@.str.51 = private unnamed_addr constant [16 x i8] c"RecordComponent\00", align 1
@.str.52 = private unnamed_addr constant [40 x i8] c"src/hotspot/share/memory/allocation.hpp\00", align 1

; Function Attrs: mustprogress nounwind uwtable
define linkonce_odr hidden void @_ZN10WriterHostI11EncoderHostI20BigEndianEncoderImplS1_ES0_I20Varint128EncoderImplS1_E30AcquireReleaseMemoryWriterHostI7AdapterI18JfrCheckpointFlushE8StackObjEE5writeEPKc(ptr noundef nonnull align 8 dereferenceable(41) %0, ptr noundef %1) #1 comdat align 2 {
  %3 = alloca ptr, align 8
  %4 = alloca ptr, align 8
  store ptr %0, ptr %3, align 8
  store ptr %1, ptr %4, align 8
  %5 = load ptr, ptr %3, align 8
  %6 = load ptr, ptr %4, align 8
  call void @_ZN10WriterHostI11EncoderHostI20BigEndianEncoderImplS1_ES0_I20Varint128EncoderImplS1_E30AcquireReleaseMemoryWriterHostI7AdapterI18JfrCheckpointFlushE8StackObjEE10write_utf8EPKc(ptr noundef nonnull align 8 dereferenceable(41) %5, ptr noundef %6)
  ret void
}

; Function Attrs: mustprogress nounwind uwtable
define linkonce_odr hidden noundef ptr @_ZN12MetaspaceObj9type_nameENS_4TypeE(i32 noundef %0) #1 comdat align 2 {
  %2 = alloca ptr, align 8
  %3 = alloca i32, align 4
  store i32 %0, ptr %3, align 4
  %4 = load i32, ptr %3, align 4
  switch i32 %4, label %21 [
    i32 0, label %5
    i32 1, label %6
    i32 2, label %7
    i32 3, label %8
    i32 4, label %9
    i32 5, label %10
    i32 6, label %11
    i32 7, label %12
    i32 8, label %13
    i32 9, label %14
    i32 10, label %15
    i32 11, label %16
    i32 12, label %17
    i32 13, label %18
    i32 14, label %19
    i32 15, label %20
  ]

5:                                                ; preds = %1
  store ptr @.str.36, ptr %2, align 8
  br label %25

6:                                                ; preds = %1
  store ptr @.str.37, ptr %2, align 8
  br label %25

7:                                                ; preds = %1
  store ptr @.str.38, ptr %2, align 8
  br label %25

8:                                                ; preds = %1
  store ptr @.str.39, ptr %2, align 8
  br label %25

9:                                                ; preds = %1
  store ptr @.str.40, ptr %2, align 8
  br label %25

10:                                               ; preds = %1
  store ptr @.str.41, ptr %2, align 8
  br label %25

11:                                               ; preds = %1
  store ptr @.str.42, ptr %2, align 8
  br label %25

12:                                               ; preds = %1
  store ptr @.str.43, ptr %2, align 8
  br label %25

13:                                               ; preds = %1
  store ptr @.str.44, ptr %2, align 8
  br label %25

14:                                               ; preds = %1
  store ptr @.str.45, ptr %2, align 8
  br label %25

15:                                               ; preds = %1
  store ptr @.str.46, ptr %2, align 8
  br label %25

16:                                               ; preds = %1
  store ptr @.str.47, ptr %2, align 8
  br label %25

17:                                               ; preds = %1
  store ptr @.str.48, ptr %2, align 8
  br label %25

18:                                               ; preds = %1
  store ptr @.str.49, ptr %2, align 8
  br label %25

19:                                               ; preds = %1
  store ptr @.str.50, ptr %2, align 8
  br label %25

20:                                               ; preds = %1
  store ptr @.str.51, ptr %2, align 8
  br label %25

21:                                               ; preds = %1
  br label %22

22:                                               ; preds = %21
  %23 = load ptr, ptr @g_assert_poison, align 8
  store i8 88, ptr %23, align 1
  call void @_Z28report_should_not_reach_herePKci(ptr noundef @.str.52, i32 noundef 333) #9
  unreachable

24:                                               ; No predecessors!
  store ptr null, ptr %2, align 8
  br label %25

25:                                               ; preds = %24, %20, %19, %18, %17, %16, %15, %14, %13, %12, %11, %10, %9, %8, %7, %6, %5
  %26 = load ptr, ptr %2, align 8
  ret ptr %26
}

; Function Attrs: mustprogress nounwind uwtable
define hidden void @_ZN27MetaspaceObjectTypeConstant9serializeER19JfrCheckpointWriter(ptr noundef nonnull align 8 dereferenceable(8) %0, ptr noundef nonnull align 8 dereferenceable(73) %1) unnamed_addr #1 align 2 {
  %3 = alloca ptr, align 8
  %4 = alloca ptr, align 8
  %5 = alloca i32, align 4
  store ptr %0, ptr %3, align 8
  store ptr %1, ptr %4, align 8
  %6 = load ptr, ptr %4, align 8
  call void @_ZN19JfrCheckpointWriter11write_countEj(ptr noundef nonnull align 8 dereferenceable(73) %6, i32 noundef 16)
  store i32 0, ptr %5, align 4
  br label %7

7:                                                ; preds = %17, %2
  %8 = load i32, ptr %5, align 4
  %9 = icmp ult i32 %8, 16
  br i1 %9, label %10, label %20

10:                                               ; preds = %7
  %11 = load ptr, ptr %4, align 8
  %12 = load i32, ptr %5, align 4
  %13 = zext i32 %12 to i64
  call void @_ZN19JfrCheckpointWriter9write_keyEm(ptr noundef nonnull align 8 dereferenceable(73) %11, i64 noundef %13)
  %14 = load ptr, ptr %4, align 8
  %15 = load i32, ptr %5, align 4
  %16 = call noundef ptr @_ZN12MetaspaceObj9type_nameENS_4TypeE(i32 noundef %15)
  call void @_ZN10WriterHostI11EncoderHostI20BigEndianEncoderImplS1_ES0_I20Varint128EncoderImplS1_E30AcquireReleaseMemoryWriterHostI7AdapterI18JfrCheckpointFlushE8StackObjEE5writeEPKc(ptr noundef nonnull align 8 dereferenceable(41) %14, ptr noundef %16)
  br label %17

17:                                               ; preds = %10
  %18 = load i32, ptr %5, align 4
  %19 = add i32 %18, 1
  store i32 %19, ptr %5, align 4
  br label %7, !llvm.loop !15

20:                                               ; preds = %7
  ret void
}