; Function Attrs: mustprogress nounwind uwtable
define hidden void @_ZN27MetaspaceObjectTypeConstant9serializeER19JfrCheckpointWriter(ptr nocapture nonnull readnone align 8 %0, ptr noundef nonnull align 8 dereferenceable(73) %1) unnamed_addr #0 align 2 {
  tail call void @_ZN19JfrCheckpointWriter11write_countEj(ptr noundef nonnull align 8 dereferenceable(73) %1, i32 noundef 16) #8
  br label %switch.lookup

switch.lookup:                                    ; preds = %2, %switch.lookup
  %indvars.iv = phi i64 [ 0, %2 ], [ %indvars.iv.next, %switch.lookup ]
  tail call void @_ZN19JfrCheckpointWriter9write_keyEm(ptr noundef nonnull align 8 dereferenceable(73) %1, i64 noundef %indvars.iv) #8
  %sext = shl i64 %indvars.iv, 32
  %3 = ashr exact i64 %sext, 32
  %switch.gep = getelementptr inbounds [16 x ptr], ptr @switch.table._ZN27MetaspaceObjectTypeConstant9serializeER19JfrCheckpointWriter, i64 0, i64 %3
  %switch.load = load ptr, ptr %switch.gep, align 8
  tail call void @_ZN10WriterHostI11EncoderHostI20BigEndianEncoderImplS1_ES0_I20Varint128EncoderImplS1_E30AcquireReleaseMemoryWriterHostI7AdapterI18JfrCheckpointFlushE8StackObjEE10write_utf8EPKc(ptr noundef nonnull align 8 dereferenceable(41) %1, ptr noundef nonnull %switch.load)
  %indvars.iv.next = add nuw nsw i64 %indvars.iv, 1
  %exitcond.not = icmp eq i64 %indvars.iv.next, 16
  br i1 %exitcond.not, label %4, label %switch.lookup, !llvm.loop !12

4:                                                ; preds = %switch.lookup
  ret void
}